target datalayout = "e-m:e-p270:32:32-p271:32:32-p272:64:64-i64:64-i128:128-f80:128-n8:16:32:64-S128"
target triple = "x86_64-pc-linux-gnu"

%struct.strbuf = type { i64, i64, ptr }
%struct.string_list = type { ptr, i64, i64, i8, ptr }

@check_mailmap_usage = internal constant [2 x ptr] [ptr @.str.11, ptr null], align 16
@use_stdin = internal global i32 0, align 4
@.str = private unnamed_addr constant [22 x i8] c"no contacts specified\00", align 1
@mailmap_blob = internal global ptr null, align 8
@mailmap_file = internal global ptr null, align 8
@stdout = external global ptr, align 8
@.str.1 = private unnamed_addr constant [7 x i8] c"stdout\00", align 1
@__const.cmd_check_mailmap.buf = private unnamed_addr constant %struct.strbuf { i64 0, i64 0, ptr @strbuf_slopbuf }, align 8
@stdin = external global ptr, align 8
@the_repository = external global ptr, align 8

; Function Attrs: inlinehint nounwind uwtable
define internal void @git_config(ptr noundef %0, ptr noundef %1) #3 {
  %3 = alloca ptr, align 8
  %4 = alloca ptr, align 8
  store ptr %0, ptr %3, align 8, !tbaa !23
  store ptr %1, ptr %4, align 8, !tbaa !23
  %5 = load ptr, ptr @the_repository, align 8, !tbaa !13
  %6 = load ptr, ptr %3, align 8, !tbaa !23
  %7 = load ptr, ptr %4, align 8, !tbaa !23
  call void @repo_config(ptr noundef %5, ptr noundef %6, ptr noundef %7)
  ret void
}

; Function Attrs: nounwind uwtable
define dso_local i32 @cmd_check_mailmap(i32 noundef %0, ptr noundef %1, ptr noundef %2, ptr noundef %3) #0 {
  %5 = alloca i32, align 4
  %6 = alloca ptr, align 8
  %7 = alloca ptr, align 8
  %8 = alloca ptr, align 8
  %9 = alloca i32, align 4
  %10 = alloca %struct.string_list, align 8
  %11 = alloca %struct.strbuf, align 8
  store i32 %0, ptr %5, align 4, !tbaa !4
  store ptr %1, ptr %6, align 8, !tbaa !8
  store ptr %2, ptr %7, align 8, !tbaa !11
  store ptr %3, ptr %8, align 8, !tbaa !13
  call void @llvm.lifetime.start.p0(i64 4, ptr %9) #9
  call void @llvm.lifetime.start.p0(i64 40, ptr %10) #9
  call void @llvm.memset.p0.i64(ptr align 8 %10, i8 0, i64 40, i1 false)
  call void @git_config(ptr noundef @git_default_config, ptr noundef null)
  %12 = load i32, ptr %5, align 4, !tbaa !4
  %13 = load ptr, ptr %6, align 8, !tbaa !8
  %14 = load ptr, ptr %7, align 8, !tbaa !11
  %15 = call i32 @parse_options(i32 noundef %12, ptr noundef %13, ptr noundef %14, ptr noundef @check_mailmap_options, ptr noundef @check_mailmap_usage, i32 noundef 0)
  store i32 %15, ptr %5, align 4, !tbaa !4
  %16 = load i32, ptr %5, align 4, !tbaa !4
  %17 = icmp eq i32 %16, 0
  br i1 %17, label %18, label %23

18:                                               ; preds = %4
  %19 = load i32, ptr @use_stdin, align 4, !tbaa !4
  %20 = icmp ne i32 %19, 0
  br i1 %20, label %23, label %21

21:                                               ; preds = %18
  %22 = call ptr @_(ptr noundef @.str)
  call void (ptr, ...) @die(ptr noundef %22) #10
  unreachable

23:                                               ; preds = %18, %4
  %24 = call i32 @read_mailmap(ptr noundef %10)
  %25 = load ptr, ptr @mailmap_blob, align 8, !tbaa !11
  %26 = icmp ne ptr %25, null
  br i1 %26, label %27, label %30

27:                                               ; preds = %23
  %28 = load ptr, ptr @mailmap_blob, align 8, !tbaa !11
  %29 = call i32 @read_mailmap_blob(ptr noundef %10, ptr noundef %28)
  br label %30

30:                                               ; preds = %27, %23
  %31 = load ptr, ptr @mailmap_file, align 8, !tbaa !11
  %32 = icmp ne ptr %31, null
  br i1 %32, label %33, label %36

33:                                               ; preds = %30
  %34 = load ptr, ptr @mailmap_file, align 8, !tbaa !11
  %35 = call i32 @read_mailmap_file(ptr noundef %10, ptr noundef %34, i32 noundef 0)
  br label %36

36:                                               ; preds = %33, %30
  store i32 0, ptr %9, align 4, !tbaa !4
  br label %37

37:                                               ; preds = %47, %36
  %38 = load i32, ptr %9, align 4, !tbaa !4
  %39 = load i32, ptr %5, align 4, !tbaa !4
  %40 = icmp slt i32 %38, %39
  br i1 %40, label %41, label %50

41:                                               ; preds = %37
  %42 = load ptr, ptr %6, align 8, !tbaa !8
  %43 = load i32, ptr %9, align 4, !tbaa !4
  %44 = sext i32 %43 to i64
  %45 = getelementptr inbounds ptr, ptr %42, i64 %44
  %46 = load ptr, ptr %45, align 8, !tbaa !11
  call void @check_mailmap(ptr noundef %10, ptr noundef %46)
  br label %47

47:                                               ; preds = %41
  %48 = load i32, ptr %9, align 4, !tbaa !4
  %49 = add nsw i32 %48, 1
  store i32 %49, ptr %9, align 4, !tbaa !4
  br label %37, !llvm.loop !15

50:                                               ; preds = %37
  %51 = load ptr, ptr @stdout, align 8, !tbaa !17
  call void @maybe_flush_or_die(ptr noundef %51, ptr noundef @.str.1)
  %52 = load i32, ptr @use_stdin, align 4, !tbaa !4
  %53 = icmp ne i32 %52, 0
  br i1 %53, label %54, label %64

54:                                               ; preds = %50
  call void @llvm.lifetime.start.p0(i64 24, ptr %11) #9
  call void @llvm.memcpy.p0.p0.i64(ptr align 8 %11, ptr align 8 @__const.cmd_check_mailmap.buf, i64 24, i1 false)
  br label %55

55:                                               ; preds = %59, %54
  %56 = load ptr, ptr @stdin, align 8, !tbaa !17
  %57 = call i32 @strbuf_getline_lf(ptr noundef %11, ptr noundef %56)
  %58 = icmp ne i32 %57, -1
  br i1 %58, label %59, label %63

59:                                               ; preds = %55
  %60 = getelementptr inbounds nuw %struct.strbuf, ptr %11, i32 0, i32 2
  %61 = load ptr, ptr %60, align 8, !tbaa !19
  call void @check_mailmap(ptr noundef %10, ptr noundef %61)
  %62 = load ptr, ptr @stdout, align 8, !tbaa !17
  call void @maybe_flush_or_die(ptr noundef %62, ptr noundef @.str.1)
  br label %55, !llvm.loop !22

63:                                               ; preds = %55
  call void @strbuf_release(ptr noundef %11)
  call void @llvm.lifetime.end.p0(i64 24, ptr %11) #9
  br label %64

64:                                               ; preds = %63, %50
  call void @clear_mailmap(ptr noundef %10)
  call void @llvm.lifetime.end.p0(i64 40, ptr %10) #9
  call void @llvm.lifetime.end.p0(i64 4, ptr %9) #9
  ret i32 0
}