; Function Attrs: nounwind uwtable
define dso_local noundef i32 @cmd_check_mailmap(i32 noundef %0, ptr noundef %1, ptr noundef %2, ptr noundef readnone captures(none) %3) local_unnamed_addr #0 {
  %5 = alloca %struct.string_list, align 8
  %6 = alloca %struct.strbuf, align 8
  call void @llvm.lifetime.start.p0(i64 40, ptr nonnull %5) #10
  call void @llvm.memset.p0.i64(ptr noundef nonnull align 8 dereferenceable(40) %5, i8 0, i64 40, i1 false)
  %7 = load ptr, ptr @the_repository, align 8, !tbaa !4
  tail call void @repo_config(ptr noundef %7, ptr noundef nonnull @git_default_config, ptr noundef null) #10
  %8 = tail call i32 @parse_options(i32 noundef %0, ptr noundef %1, ptr noundef %2, ptr noundef nonnull @check_mailmap_options, ptr noundef nonnull @check_mailmap_usage, i32 noundef 0) #10
  %9 = icmp ne i32 %8, 0
  %10 = load i32, ptr @use_stdin, align 4
  %11 = icmp ne i32 %10, 0
  %or.cond = select i1 %9, i1 true, i1 %11
  br i1 %or.cond, label %14, label %12

12:                                               ; preds = %4
  %13 = tail call fastcc ptr @_()
  tail call void (ptr, ...) @die(ptr noundef %13) #11
  unreachable

14:                                               ; preds = %4
  %15 = call i32 @read_mailmap(ptr noundef nonnull %5) #10
  %16 = load ptr, ptr @mailmap_blob, align 8, !tbaa !9
  %.not = icmp eq ptr %16, null
  br i1 %.not, label %19, label %17

17:                                               ; preds = %14
  %18 = call i32 @read_mailmap_blob(ptr noundef nonnull %5, ptr noundef nonnull %16) #10
  br label %19

19:                                               ; preds = %17, %14
  %20 = load ptr, ptr @mailmap_file, align 8, !tbaa !9
  %.not11 = icmp eq ptr %20, null
  br i1 %.not11, label %23, label %21

21:                                               ; preds = %19
  %22 = call i32 @read_mailmap_file(ptr noundef nonnull %5, ptr noundef nonnull %20, i32 noundef 0) #10
  br label %23

23:                                               ; preds = %21, %19
  %24 = icmp sgt i32 %8, 0
  br i1 %24, label %.lr.ph.preheader, label %._crit_edge

.lr.ph.preheader:                                 ; preds = %23
  %wide.trip.count = zext nneg i32 %8 to i64
  br label %.lr.ph

.lr.ph:                                           ; preds = %.lr.ph.preheader, %.lr.ph
  %indvars.iv = phi i64 [ 0, %.lr.ph.preheader ], [ %indvars.iv.next, %.lr.ph ]
  %25 = getelementptr inbounds nuw ptr, ptr %1, i64 %indvars.iv
  %26 = load ptr, ptr %25, align 8, !tbaa !9
  call fastcc void @check_mailmap(ptr noundef %5, ptr noundef %26)
  %indvars.iv.next = add nuw nsw i64 %indvars.iv, 1
  %exitcond.not = icmp eq i64 %indvars.iv.next, %wide.trip.count
  br i1 %exitcond.not, label %._crit_edge, label %.lr.ph, !llvm.loop !11

._crit_edge:                                      ; preds = %.lr.ph, %23
  %27 = load ptr, ptr @stdout, align 8, !tbaa !13
  call void @maybe_flush_or_die(ptr noundef %27, ptr noundef nonnull @.str.1) #10
  %28 = load i32, ptr @use_stdin, align 4, !tbaa !15
  %.not12 = icmp eq i32 %28, 0
  br i1 %.not12, label %38, label %29

29:                                               ; preds = %._crit_edge
  call void @llvm.lifetime.start.p0(i64 24, ptr nonnull %6) #10
  call void @llvm.memcpy.p0.p0.i64(ptr noundef nonnull align 8 dereferenceable(24) %6, ptr noundef nonnull align 8 dereferenceable(24) @__const.cmd_check_mailmap.buf, i64 24, i1 false)
  %30 = load ptr, ptr @stdin, align 8, !tbaa !13
  %31 = call i32 @strbuf_getline_lf(ptr noundef nonnull %6, ptr noundef %30) #10
  %.not1315 = icmp eq i32 %31, -1
  br i1 %.not1315, label %._crit_edge18, label %.lr.ph17

.lr.ph17:                                         ; preds = %29
  %32 = getelementptr inbounds nuw i8, ptr %6, i64 16
  br label %33

33:                                               ; preds = %.lr.ph17, %33
  %34 = load ptr, ptr %32, align 8, !tbaa !17
  call fastcc void @check_mailmap(ptr noundef %5, ptr noundef %34)
  %35 = load ptr, ptr @stdout, align 8, !tbaa !13
  call void @maybe_flush_or_die(ptr noundef %35, ptr noundef nonnull @.str.1) #10
  %36 = load ptr, ptr @stdin, align 8, !tbaa !13
  %37 = call i32 @strbuf_getline_lf(ptr noundef nonnull %6, ptr noundef %36) #10
  %.not13 = icmp eq i32 %37, -1
  br i1 %.not13, label %._crit_edge18, label %33, !llvm.loop !20

._crit_edge18:                                    ; preds = %33, %29
  call void @strbuf_release(ptr noundef nonnull %6) #10
  call void @llvm.lifetime.end.p0(i64 24, ptr nonnull %6) #10
  br label %38

38:                                               ; preds = %._crit_edge18, %._crit_edge
  call void @clear_mailmap(ptr noundef nonnull %5) #10
  call void @llvm.lifetime.end.p0(i64 40, ptr nonnull %5) #10
  ret i32 0
}